; ModuleID = '63/1147.c'
source_filename = "63/1147.c"
target datalayout = "e-m:e-p270:32:32-p271:32:32-p272:64:64-i64:64-f80:128-n8:16:32:64-S128"
target triple = "x86_64-pc-linux-gnu"

@a = dso_local global [105 x [105 x i32]] zeroinitializer, align 16
@b = dso_local global [105 x [105 x i32]] zeroinitializer, align 16
@.str = private unnamed_addr constant [5 x i8] c"%d%d\00", align 1
@.str.1 = private unnamed_addr constant [3 x i8] c"%d\00", align 1
@.str.2 = private unnamed_addr constant [4 x i8] c" %d\00", align 1
@.str.3 = private unnamed_addr constant [2 x i8] c"\0A\00", align 1

; Function Attrs: noinline nounwind uwtable
define dso_local i32 @main() #0 {
  %1 = alloca i32, align 4
  %2 = alloca i32, align 4
  %3 = alloca i32, align 4
  %4 = alloca i32, align 4
  %5 = alloca i32, align 4
  %6 = alloca i32, align 4
  %7 = alloca i32, align 4
  %8 = alloca i32, align 4
  %9 = alloca i32, align 4
  %10 = alloca i32, align 4
  %11 = alloca i32, align 4
  store i32 0, i32* %1, align 4
  %12 = call i32 (i8*, ...) @__isoc99_scanf(i8* getelementptr inbounds ([5 x i8], [5 x i8]* @.str, i64 0, i64 0), i32* %2, i32* %3)
  store i32 0, i32* %6, align 4
  br label %13

13:                                               ; preds = %34, %0
  %14 = load i32, i32* %6, align 4
  %15 = load i32, i32* %2, align 4
  %16 = icmp slt i32 %14, %15
  br i1 %16, label %17, label %37

17:                                               ; preds = %13
  store i32 0, i32* %7, align 4
  br label %18

18:                                               ; preds = %30, %17
  %19 = load i32, i32* %7, align 4
  %20 = load i32, i32* %3, align 4
  %21 = icmp slt i32 %19, %20
  br i1 %21, label %22, label %33

22:                                               ; preds = %18
  %23 = load i32, i32* %6, align 4
  %24 = sext i32 %23 to i64
  %25 = getelementptr inbounds [105 x [105 x i32]], [105 x [105 x i32]]* @a, i64 0, i64 %24
  %26 = load i32, i32* %7, align 4
  %27 = sext i32 %26 to i64
  %28 = getelementptr inbounds [105 x i32], [105 x i32]* %25, i64 0, i64 %27
  %29 = call i32 (i8*, ...) @__isoc99_scanf(i8* getelementptr inbounds ([3 x i8], [3 x i8]* @.str.1, i64 0, i64 0), i32* %28)
  br label %30

30:                                               ; preds = %22
  %31 = load i32, i32* %7, align 4
  %32 = add nsw i32 %31, 1
  store i32 %32, i32* %7, align 4
  br label %18

33:                                               ; preds = %18
  br label %34

34:                                               ; preds = %33
  %35 = load i32, i32* %6, align 4
  %36 = add nsw i32 %35, 1
  store i32 %36, i32* %6, align 4
  br label %13

37:                                               ; preds = %13
  %38 = call i32 (i8*, ...) @__isoc99_scanf(i8* getelementptr inbounds ([5 x i8], [5 x i8]* @.str, i64 0, i64 0), i32* %4, i32* %5)
  store i32 0, i32* %6, align 4
  br label %39

39:                                               ; preds = %60, %37
  %40 = load i32, i32* %6, align 4
  %41 = load i32, i32* %4, align 4
  %42 = icmp slt i32 %40, %41
  br i1 %42, label %43, label %63

43:                                               ; preds = %39
  store i32 0, i32* %7, align 4
  br label %44

44:                                               ; preds = %56, %43
  %45 = load i32, i32* %7, align 4
  %46 = load i32, i32* %5, align 4
  %47 = icmp slt i32 %45, %46
  br i1 %47, label %48, label %59

48:                                               ; preds = %44
  %49 = load i32, i32* %6, align 4
  %50 = sext i32 %49 to i64
  %51 = getelementptr inbounds [105 x [105 x i32]], [105 x [105 x i32]]* @b, i64 0, i64 %50
  %52 = load i32, i32* %7, align 4
  %53 = sext i32 %52 to i64
  %54 = getelementptr inbounds [105 x i32], [105 x i32]* %51, i64 0, i64 %53
  %55 = call i32 (i8*, ...) @__isoc99_scanf(i8* getelementptr inbounds ([3 x i8], [3 x i8]* @.str.1, i64 0, i64 0), i32* %54)
  br label %56

56:                                               ; preds = %48
  %57 = load i32, i32* %7, align 4
  %58 = add nsw i32 %57, 1
  store i32 %58, i32* %7, align 4
  br label %44

59:                                               ; preds = %44
  br label %60

60:                                               ; preds = %59
  %61 = load i32, i32* %6, align 4
  %62 = add nsw i32 %61, 1
  store i32 %62, i32* %6, align 4
  br label %39

63:                                               ; preds = %39
  %64 = load i32, i32* %2, align 4
  %65 = load i32, i32* %4, align 4
  %66 = icmp sgt i32 %64, %65
  br i1 %66, label %67, label %69

67:                                               ; preds = %63
  %68 = load i32, i32* %2, align 4
  store i32 %68, i32* %8, align 4
  br label %71

69:                                               ; preds = %63
  %70 = load i32, i32* %4, align 4
  store i32 %70, i32* %8, align 4
  br label %71

71:                                               ; preds = %69, %67
  %72 = load i32, i32* %3, align 4
  %73 = load i32, i32* %5, align 4
  %74 = icmp sgt i32 %72, %73
  br i1 %74, label %75, label %77

75:                                               ; preds = %71
  %76 = load i32, i32* %3, align 4
  store i32 %76, i32* %9, align 4
  br label %79

77:                                               ; preds = %71
  %78 = load i32, i32* %5, align 4
  store i32 %78, i32* %9, align 4
  br label %79

79:                                               ; preds = %77, %75
  store i32 0, i32* %6, align 4
  br label %80

80:                                               ; preds = %139, %79
  %81 = load i32, i32* %6, align 4
  %82 = load i32, i32* %8, align 4
  %83 = icmp slt i32 %81, %82
  br i1 %83, label %84, label %142

84:                                               ; preds = %80
  store i32 0, i32* %7, align 4
  br label %85

85:                                               ; preds = %134, %84
  %86 = load i32, i32* %7, align 4
  %87 = load i32, i32* %9, align 4
  %88 = icmp slt i32 %86, %87
  br i1 %88, label %89, label %137

89:                                               ; preds = %85
  store i32 0, i32* %10, align 4
  store i32 0, i32* %11, align 4
  br label %90

90:                                               ; preds = %112, %89
  %91 = load i32, i32* %11, align 4
  %92 = load i32, i32* %3, align 4
  %93 = icmp slt i32 %91, %92
  br i1 %93, label %94, label %115

94:                                               ; preds = %90
  %95 = load i32, i32* %10, align 4
  %96 = load i32, i32* %6, align 4
  %97 = sext i32 %96 to i64
  %98 = getelementptr inbounds [105 x [105 x i32]], [105 x [105 x i32]]* @a, i64 0, i64 %97
  %99 = load i32, i32* %11, align 4
  %100 = sext i32 %99 to i64
  %101 = getelementptr inbounds [105 x i32], [105 x i32]* %98, i64 0, i64 %100
  %102 = load i32, i32* %101, align 4
  %103 = load i32, i32* %11, align 4
  %104 = sext i32 %103 to i64
  %105 = getelementptr inbounds [105 x [105 x i32]], [105 x [105 x i32]]* @b, i64 0, i64 %104
  %106 = load i32, i32* %7, align 4
  %107 = sext i32 %106 to i64
  %108 = getelementptr inbounds [105 x i32], [105 x i32]* %105, i64 0, i64 %107
  %109 = load i32, i32* %108, align 4
  %110 = mul nsw i32 %102, %109
  %111 = add nsw i32 %95, %110
  store i32 %111, i32* %10, align 4
  br label %112

112:                                              ; preds = %94
  %113 = load i32, i32* %11, align 4
  %114 = add nsw i32 %113, 1
  store i32 %114, i32* %11, align 4
  br label %90

115:                                              ; preds = %90
  %116 = load i32, i32* %6, align 4
  %117 = load i32, i32* %2, align 4
  %118 = icmp slt i32 %116, %117
  br i1 %118, label %119, label %133

119:                                              ; preds = %115
  %120 = load i32, i32* %7, align 4
  %121 = load i32, i32* %5, align 4
  %122 = icmp slt i32 %120, %121
  br i1 %122, label %123, label %133

123:                                              ; preds = %119
  %124 = load i32, i32* %7, align 4
  %125 = icmp eq i32 %124, 0
  br i1 %125, label %126, label %129

126:                                              ; preds = %123
  %127 = load i32, i32* %10, align 4
  %128 = call i32 (i8*, ...) @printf(i8* getelementptr inbounds ([3 x i8], [3 x i8]* @.str.1, i64 0, i64 0), i32 %127)
  br label %132

129:                                              ; preds = %123
  %130 = load i32, i32* %10, align 4
  %131 = call i32 (i8*, ...) @printf(i8* getelementptr inbounds ([4 x i8], [4 x i8]* @.str.2, i64 0, i64 0), i32 %130)
  br label %132

132:                                              ; preds = %129, %126
  br label %133

133:                                              ; preds = %132, %119, %115
  br label %134

134:                                              ; preds = %133
  %135 = load i32, i32* %7, align 4
  %136 = add nsw i32 %135, 1
  store i32 %136, i32* %7, align 4
  br label %85

137:                                              ; preds = %85
  %138 = call i32 (i8*, ...) @printf(i8* getelementptr inbounds ([2 x i8], [2 x i8]* @.str.3, i64 0, i64 0))
  br label %139

139:                                              ; preds = %137
  %140 = load i32, i32* %6, align 4
  %141 = add nsw i32 %140, 1
  store i32 %141, i32* %6, align 4
  br label %80

142:                                              ; preds = %80
  ret i32 0
}

declare dso_local i32 @__isoc99_scanf(i8*, ...) #1

declare dso_local i32 @printf(i8*, ...) #1


!llvm.module.flags = !{!0}
!llvm.ident = !{!1}

!0 = !{i32 1, !"wchar_size", i32 4}
!1 = !{!"clang version 10.0.0-4ubuntu1 "}
